target datalayout = "e-m:e-p270:32:32-p271:32:32-p272:64:64-i64:64-i128:128-f80:128-n8:16:32:64-S128"
target triple = "x86_64-pc-linux-gnu"

%struct.Vec_Int_t_ = type { i32, i32, ptr }
%struct.Gia_Man_t_ = type { ptr, ptr, i32, i32, i32, i32, ptr, ptr, i32, i32, i32, ptr, ptr, %struct.Vec_Int_t_, %struct.Vec_Int_t_, i32, i32, i32, %struct.Vec_Int_t_, ptr, ptr, ptr, i32, i32, i32, i32, ptr, ptr, ptr, ptr, ptr, i32, i32, ptr, i32, ptr, ptr, ptr, ptr, ptr, ptr, ptr, ptr, ptr, ptr, ptr, ptr, ptr, ptr, ptr, ptr, ptr, ptr, %struct.Vec_Int_t_, %struct.Vec_Int_t_, ptr, ptr, ptr, ptr, ptr, ptr, ptr, ptr, ptr, ptr, ptr, ptr, ptr, ptr, ptr, ptr, ptr, ptr, ptr, ptr, ptr, i32, float, float, ptr, ptr, i32, ptr, ptr, ptr, ptr, ptr, ptr, ptr, ptr, ptr, ptr, ptr, ptr, ptr, ptr, ptr, i64, i64, ptr, ptr, i32, i32, i32, i32, i32, i32, i32, i32, i32, i32, i32, i32, ptr, ptr, ptr, ptr, ptr, ptr, ptr, ptr, i32, i32, i32, ptr, i32, i32, ptr, ptr, ptr, ptr, ptr, ptr, i32, i32, ptr, %struct.Vec_Int_t_, %struct.Vec_Int_t_, %struct.Vec_Int_t_, ptr, ptr, ptr, i32, i32, i32, i32, ptr, ptr, ptr, ptr, ptr }
%struct.Gia_Obj_t_ = type <{ i64, i32 }>

@.str.84 = private unnamed_addr constant [67 x i8] c"Gia_ManCellMappingVerify: Buffer driver %d does not have mapping.\0A\00", align 1
@.str.85 = private unnamed_addr constant [63 x i8] c"Gia_ManCellMappingVerify: CO driver %d does not have mapping.\0A\00", align 1

; Function Attrs: inlinehint nounwind uwtable
define internal i32 @Gia_ObjFaninId0(ptr noundef %0, i32 noundef %1) #2 {
  %3 = alloca ptr, align 8
  %4 = alloca i32, align 4
  store ptr %0, ptr %3, align 8, !tbaa !137
  store i32 %1, ptr %4, align 4, !tbaa !17
  %5 = load i32, ptr %4, align 4, !tbaa !17
  %6 = load ptr, ptr %3, align 8, !tbaa !137
  %7 = load i64, ptr %6, align 4
  %8 = and i64 %7, 536870911
  %9 = trunc i64 %8 to i32
  %10 = sub nsw i32 %5, %9
  ret i32 %10
}

; Function Attrs: inlinehint nounwind uwtable
define internal i32 @Gia_ObjId(ptr noundef %0, ptr noundef %1) #2 {
  %3 = alloca ptr, align 8
  %4 = alloca ptr, align 8
  store ptr %0, ptr %3, align 8, !tbaa !84
  store ptr %1, ptr %4, align 8, !tbaa !137
  %5 = load ptr, ptr %4, align 8, !tbaa !137
  %6 = load ptr, ptr %3, align 8, !tbaa !84
  %7 = getelementptr inbounds nuw %struct.Gia_Man_t_, ptr %6, i32 0, i32 6
  %8 = load ptr, ptr %7, align 8, !tbaa !157
  %9 = ptrtoint ptr %5 to i64
  %10 = ptrtoint ptr %8 to i64
  %11 = sub i64 %9, %10
  %12 = sdiv exact i64 %11, 12
  %13 = trunc i64 %12 to i32
  ret i32 %13
}

; Function Attrs: inlinehint nounwind uwtable
define internal i32 @Vec_IntEntry(ptr noundef %0, i32 noundef %1) #2 {
  %3 = alloca ptr, align 8
  %4 = alloca i32, align 4
  store ptr %0, ptr %3, align 8, !tbaa !26
  store i32 %1, ptr %4, align 4, !tbaa !17
  %5 = load ptr, ptr %3, align 8, !tbaa !26
  %6 = getelementptr inbounds nuw %struct.Vec_Int_t_, ptr %5, i32 0, i32 2
  %7 = load ptr, ptr %6, align 8, !tbaa !46
  %8 = load i32, ptr %4, align 4, !tbaa !17
  %9 = sext i32 %8 to i64
  %10 = getelementptr inbounds i32, ptr %7, i64 %9
  %11 = load i32, ptr %10, align 4, !tbaa !17
  ret i32 %11
}

; Function Attrs: inlinehint nounwind uwtable
define internal i32 @Abc_Var2Lit(i32 noundef %0, i32 noundef %1) #2 {
  %3 = alloca i32, align 4
  %4 = alloca i32, align 4
  store i32 %0, ptr %3, align 4, !tbaa !17
  store i32 %1, ptr %4, align 4, !tbaa !17
  %5 = load i32, ptr %3, align 4, !tbaa !17
  %6 = load i32, ptr %3, align 4, !tbaa !17
  %7 = add nsw i32 %5, %6
  %8 = load i32, ptr %4, align 4, !tbaa !17
  %9 = add nsw i32 %7, %8
  ret i32 %9
}

; Function Attrs: inlinehint nounwind uwtable
define internal i32 @Gia_ObjFaninC0(ptr noundef %0) #2 {
  %2 = alloca ptr, align 8
  store ptr %0, ptr %2, align 8, !tbaa !137
  %3 = load ptr, ptr %2, align 8, !tbaa !137
  %4 = load i64, ptr %3, align 4
  %5 = lshr i64 %4, 29
  %6 = and i64 %5, 1
  %7 = trunc i64 %6 to i32
  ret i32 %7
}

; Function Attrs: inlinehint nounwind uwtable
define internal i32 @Gia_ObjIsAnd(ptr noundef %0) #2 {
  %2 = alloca ptr, align 8
  store ptr %0, ptr %2, align 8, !tbaa !137
  %3 = load ptr, ptr %2, align 8, !tbaa !137
  %4 = load i64, ptr %3, align 4
  %5 = lshr i64 %4, 31
  %6 = and i64 %5, 1
  %7 = trunc i64 %6 to i32
  %8 = icmp ne i32 %7, 0
  br i1 %8, label %15, label %9

9:                                                ; preds = %1
  %10 = load ptr, ptr %2, align 8, !tbaa !137
  %11 = load i64, ptr %10, align 4
  %12 = and i64 %11, 536870911
  %13 = trunc i64 %12 to i32
  %14 = icmp ne i32 %13, 536870911
  br label %15

15:                                               ; preds = %9, %1
  %16 = phi i1 [ false, %1 ], [ %14, %9 ]
  %17 = zext i1 %16 to i32
  ret i32 %17
}

; Function Attrs: inlinehint nounwind uwtable
define internal ptr @Gia_ManCo(ptr noundef %0, i32 noundef %1) #2 {
  %3 = alloca ptr, align 8
  %4 = alloca i32, align 4
  store ptr %0, ptr %3, align 8, !tbaa !84
  store i32 %1, ptr %4, align 4, !tbaa !17
  %5 = load ptr, ptr %3, align 8, !tbaa !84
  %6 = load ptr, ptr %3, align 8, !tbaa !84
  %7 = getelementptr inbounds nuw %struct.Gia_Man_t_, ptr %6, i32 0, i32 12
  %8 = load ptr, ptr %7, align 8, !tbaa !188
  %9 = load i32, ptr %4, align 4, !tbaa !17
  %10 = call i32 @Vec_IntEntry(ptr noundef %8, i32 noundef %9)
  %11 = call ptr @Gia_ManObj(ptr noundef %5, i32 noundef %10)
  ret ptr %11
}

; Function Attrs: inlinehint nounwind uwtable
define internal i32 @Vec_IntSize(ptr noundef %0) #2 {
  %2 = alloca ptr, align 8
  store ptr %0, ptr %2, align 8, !tbaa !26
  %3 = load ptr, ptr %2, align 8, !tbaa !26
  %4 = getelementptr inbounds nuw %struct.Vec_Int_t_, ptr %3, i32 0, i32 1
  %5 = load i32, ptr %4, align 4, !tbaa !44
  ret i32 %5
}

; Function Attrs: inlinehint nounwind uwtable
define internal i32 @Gia_ObjFaninId0p(ptr noundef %0, ptr noundef %1) #2 {
  %3 = alloca ptr, align 8
  %4 = alloca ptr, align 8
  store ptr %0, ptr %3, align 8, !tbaa !84
  store ptr %1, ptr %4, align 8, !tbaa !137
  %5 = load ptr, ptr %4, align 8, !tbaa !137
  %6 = load ptr, ptr %3, align 8, !tbaa !84
  %7 = load ptr, ptr %4, align 8, !tbaa !137
  %8 = call i32 @Gia_ObjId(ptr noundef %6, ptr noundef %7)
  %9 = call i32 @Gia_ObjFaninId0(ptr noundef %5, i32 noundef %8)
  ret i32 %9
}

; Function Attrs: inlinehint nounwind uwtable
define internal i32 @Gia_ObjIsCell(ptr noundef %0, i32 noundef %1) #2 {
  %3 = alloca ptr, align 8
  %4 = alloca i32, align 4
  store ptr %0, ptr %3, align 8, !tbaa !84
  store i32 %1, ptr %4, align 4, !tbaa !17
  %5 = load ptr, ptr %3, align 8, !tbaa !84
  %6 = getelementptr inbounds nuw %struct.Gia_Man_t_, ptr %5, i32 0, i32 40
  %7 = load ptr, ptr %6, align 8, !tbaa !254
  %8 = load i32, ptr %4, align 4, !tbaa !17
  %9 = call i32 @Vec_IntEntry(ptr noundef %7, i32 noundef %8)
  %10 = icmp ne i32 %9, 0
  %11 = zext i1 %10 to i32
  ret i32 %11
}

; Function Attrs: inlinehint nounwind uwtable
define internal i32 @Gia_ObjFaninLit0p(ptr noundef %0, ptr noundef %1) #2 {
  %3 = alloca ptr, align 8
  %4 = alloca ptr, align 8
  store ptr %0, ptr %3, align 8, !tbaa !84
  store ptr %1, ptr %4, align 8, !tbaa !137
  %5 = load ptr, ptr %3, align 8, !tbaa !84
  %6 = load ptr, ptr %4, align 8, !tbaa !137
  %7 = call i32 @Gia_ObjFaninId0p(ptr noundef %5, ptr noundef %6)
  %8 = load ptr, ptr %4, align 8, !tbaa !137
  %9 = call i32 @Gia_ObjFaninC0(ptr noundef %8)
  %10 = call i32 @Abc_Var2Lit(i32 noundef %7, i32 noundef %9)
  ret i32 %10
}

; Function Attrs: inlinehint nounwind uwtable
define internal i32 @Gia_ObjIsAndNotBuf(ptr noundef %0) #2 {
  %2 = alloca ptr, align 8
  store ptr %0, ptr %2, align 8, !tbaa !137
  %3 = load ptr, ptr %2, align 8, !tbaa !137
  %4 = call i32 @Gia_ObjIsAnd(ptr noundef %3)
  %5 = icmp ne i32 %4, 0
  br i1 %5, label %6, label %17

6:                                                ; preds = %1
  %7 = load ptr, ptr %2, align 8, !tbaa !137
  %8 = load i64, ptr %7, align 4
  %9 = and i64 %8, 536870911
  %10 = trunc i64 %9 to i32
  %11 = load ptr, ptr %2, align 8, !tbaa !137
  %12 = load i64, ptr %11, align 4
  %13 = lshr i64 %12, 32
  %14 = and i64 %13, 536870911
  %15 = trunc i64 %14 to i32
  %16 = icmp ne i32 %10, %15
  br label %17

17:                                               ; preds = %6, %1
  %18 = phi i1 [ false, %1 ], [ %16, %6 ]
  %19 = zext i1 %18 to i32
  ret i32 %19
}

; Function Attrs: inlinehint nounwind uwtable
define internal ptr @Gia_ObjFanin0(ptr noundef %0) #2 {
  %2 = alloca ptr, align 8
  store ptr %0, ptr %2, align 8, !tbaa !137
  %3 = load ptr, ptr %2, align 8, !tbaa !137
  %4 = load ptr, ptr %2, align 8, !tbaa !137
  %5 = load i64, ptr %4, align 4
  %6 = and i64 %5, 536870911
  %7 = trunc i64 %6 to i32
  %8 = sext i32 %7 to i64
  %9 = sub i64 0, %8
  %10 = getelementptr inbounds %struct.Gia_Obj_t_, ptr %3, i64 %9
  ret ptr %10
}

; Function Attrs: inlinehint nounwind uwtable
define internal i32 @Gia_ObjIsBuf(ptr noundef %0) #2 {
  %2 = alloca ptr, align 8
  store ptr %0, ptr %2, align 8, !tbaa !137
  %3 = load ptr, ptr %2, align 8, !tbaa !137
  %4 = load i64, ptr %3, align 4
  %5 = and i64 %4, 536870911
  %6 = trunc i64 %5 to i32
  %7 = load ptr, ptr %2, align 8, !tbaa !137
  %8 = load i64, ptr %7, align 4
  %9 = lshr i64 %8, 32
  %10 = and i64 %9, 536870911
  %11 = trunc i64 %10 to i32
  %12 = icmp eq i32 %6, %11
  br i1 %12, label %13, label %27

13:                                               ; preds = %1
  %14 = load ptr, ptr %2, align 8, !tbaa !137
  %15 = load i64, ptr %14, align 4
  %16 = and i64 %15, 536870911
  %17 = trunc i64 %16 to i32
  %18 = icmp ne i32 %17, 536870911
  br i1 %18, label %19, label %27

19:                                               ; preds = %13
  %20 = load ptr, ptr %2, align 8, !tbaa !137
  %21 = load i64, ptr %20, align 4
  %22 = lshr i64 %21, 31
  %23 = and i64 %22, 1
  %24 = trunc i64 %23 to i32
  %25 = icmp ne i32 %24, 0
  %26 = xor i1 %25, true
  br label %27

27:                                               ; preds = %19, %13, %1
  %28 = phi i1 [ false, %13 ], [ false, %1 ], [ %26, %19 ]
  %29 = zext i1 %28 to i32
  ret i32 %29
}

; Function Attrs: inlinehint nounwind uwtable
define internal ptr @Gia_ManObj(ptr noundef %0, i32 noundef %1) #2 {
  %3 = alloca ptr, align 8
  %4 = alloca i32, align 4
  store ptr %0, ptr %3, align 8, !tbaa !84
  store i32 %1, ptr %4, align 4, !tbaa !17
  %5 = load ptr, ptr %3, align 8, !tbaa !84
  %6 = getelementptr inbounds nuw %struct.Gia_Man_t_, ptr %5, i32 0, i32 6
  %7 = load ptr, ptr %6, align 8, !tbaa !157
  %8 = load i32, ptr %4, align 4, !tbaa !17
  %9 = sext i32 %8 to i64
  %10 = getelementptr inbounds %struct.Gia_Obj_t_, ptr %7, i64 %9
  ret ptr %10
}

; Function Attrs: inlinehint nounwind uwtable
define internal i32 @Gia_ManBufNum(ptr noundef %0) #2 {
  %2 = alloca ptr, align 8
  store ptr %0, ptr %2, align 8, !tbaa !84
  %3 = load ptr, ptr %2, align 8, !tbaa !84
  %4 = getelementptr inbounds nuw %struct.Gia_Man_t_, ptr %3, i32 0, i32 10
  %5 = load i32, ptr %4, align 8, !tbaa !300
  ret i32 %5
}

; Function Attrs: nounwind uwtable
define void @Gia_ManCellMappingVerify(ptr noundef %0) #0 {
  %2 = alloca ptr, align 8
  %3 = alloca ptr, align 8
  %4 = alloca i32, align 4
  %5 = alloca i32, align 4
  %6 = alloca i32, align 4
  store ptr %0, ptr %2, align 8, !tbaa !84
  call void @llvm.lifetime.start.p0(i64 8, ptr %3) #13
  call void @llvm.lifetime.start.p0(i64 4, ptr %4) #13
  call void @llvm.lifetime.start.p0(i64 4, ptr %5) #13
  call void @llvm.lifetime.start.p0(i64 4, ptr %6) #13
  store i32 1, ptr %6, align 4, !tbaa !17
  %7 = load ptr, ptr %2, align 8, !tbaa !84
  call void @Gia_ManIncrementTravId(ptr noundef %7)
  %8 = load ptr, ptr %2, align 8, !tbaa !84
  call void @Gia_ManIncrementTravId(ptr noundef %8)
  %9 = load ptr, ptr %2, align 8, !tbaa !84
  %10 = call i32 @Gia_ManBufNum(ptr noundef %9)
  %11 = icmp ne i32 %10, 0
  br i1 %11, label %12, label %13

12:                                               ; preds = %1
  br label %17

13:                                               ; preds = %1
  %14 = load ptr, ptr %2, align 8, !tbaa !84
  %15 = getelementptr inbounds nuw %struct.Gia_Man_t_, ptr %14, i32 0, i32 4
  %16 = load i32, ptr %15, align 8, !tbaa !118
  br label %17

17:                                               ; preds = %13, %12
  %18 = phi i32 [ 0, %12 ], [ %16, %13 ]
  store i32 %18, ptr %4, align 4, !tbaa !17
  br label %19

19:                                               ; preds = %62, %17
  %20 = load i32, ptr %4, align 4, !tbaa !17
  %21 = load ptr, ptr %2, align 8, !tbaa !84
  %22 = getelementptr inbounds nuw %struct.Gia_Man_t_, ptr %21, i32 0, i32 4
  %23 = load i32, ptr %22, align 8, !tbaa !118
  %24 = icmp slt i32 %20, %23
  br i1 %24, label %25, label %30

25:                                               ; preds = %19
  %26 = load ptr, ptr %2, align 8, !tbaa !84
  %27 = load i32, ptr %4, align 4, !tbaa !17
  %28 = call ptr @Gia_ManObj(ptr noundef %26, i32 noundef %27)
  store ptr %28, ptr %3, align 8, !tbaa !137
  %29 = icmp ne ptr %28, null
  br label %30

30:                                               ; preds = %25, %19
  %31 = phi i1 [ false, %19 ], [ %29, %25 ]
  br i1 %31, label %32, label %65

32:                                               ; preds = %30
  %33 = load ptr, ptr %3, align 8, !tbaa !137
  %34 = call i32 @Gia_ObjIsBuf(ptr noundef %33)
  %35 = icmp ne i32 %34, 0
  br i1 %35, label %37, label %36

36:                                               ; preds = %32
  br label %61

37:                                               ; preds = %32
  %38 = load ptr, ptr %3, align 8, !tbaa !137
  %39 = call ptr @Gia_ObjFanin0(ptr noundef %38)
  %40 = call i32 @Gia_ObjIsAndNotBuf(ptr noundef %39)
  %41 = icmp ne i32 %40, 0
  br i1 %41, label %43, label %42

42:                                               ; preds = %37
  br label %62

43:                                               ; preds = %37
  %44 = load ptr, ptr %2, align 8, !tbaa !84
  %45 = load ptr, ptr %3, align 8, !tbaa !137
  %46 = call i32 @Gia_ObjFaninLit0p(ptr noundef %44, ptr noundef %45)
  store i32 %46, ptr %5, align 4, !tbaa !17
  %47 = load ptr, ptr %2, align 8, !tbaa !84
  %48 = load i32, ptr %5, align 4, !tbaa !17
  %49 = call i32 @Gia_ObjIsCell(ptr noundef %47, i32 noundef %48)
  %50 = icmp ne i32 %49, 0
  br i1 %50, label %55, label %51

51:                                               ; preds = %43
  %52 = load ptr, ptr %2, align 8, !tbaa !84
  %53 = load ptr, ptr %3, align 8, !tbaa !137
  %54 = call i32 @Gia_ObjFaninId0p(ptr noundef %52, ptr noundef %53)
  call void (i32, ptr, ...) @Abc_Print(i32 noundef -1, ptr noundef @.str.84, i32 noundef %54)
  store i32 0, ptr %6, align 4, !tbaa !17
  br label %62

55:                                               ; preds = %43
  %56 = load ptr, ptr %2, align 8, !tbaa !84
  %57 = load i32, ptr %5, align 4, !tbaa !17
  %58 = call i32 @Gia_ManCellMappingVerify_rec(ptr noundef %56, i32 noundef %57)
  %59 = load i32, ptr %6, align 4, !tbaa !17
  %60 = and i32 %59, %58
  store i32 %60, ptr %6, align 4, !tbaa !17
  br label %61

61:                                               ; preds = %55, %36
  br label %62

62:                                               ; preds = %61, %51, %42
  %63 = load i32, ptr %4, align 4, !tbaa !17
  %64 = add nsw i32 %63, 1
  store i32 %64, ptr %4, align 4, !tbaa !17
  br label %19, !llvm.loop !298

65:                                               ; preds = %30
  store i32 0, ptr %4, align 4, !tbaa !17
  br label %66

66:                                               ; preds = %104, %65
  %67 = load i32, ptr %4, align 4, !tbaa !17
  %68 = load ptr, ptr %2, align 8, !tbaa !84
  %69 = getelementptr inbounds nuw %struct.Gia_Man_t_, ptr %68, i32 0, i32 12
  %70 = load ptr, ptr %69, align 8, !tbaa !188
  %71 = call i32 @Vec_IntSize(ptr noundef %70)
  %72 = icmp slt i32 %67, %71
  br i1 %72, label %73, label %78

73:                                               ; preds = %66
  %74 = load ptr, ptr %2, align 8, !tbaa !84
  %75 = load i32, ptr %4, align 4, !tbaa !17
  %76 = call ptr @Gia_ManCo(ptr noundef %74, i32 noundef %75)
  store ptr %76, ptr %3, align 8, !tbaa !137
  %77 = icmp ne ptr %76, null
  br label %78

78:                                               ; preds = %73, %66
  %79 = phi i1 [ false, %66 ], [ %77, %73 ]
  br i1 %79, label %80, label %107

80:                                               ; preds = %78
  %81 = load ptr, ptr %3, align 8, !tbaa !137
  %82 = call ptr @Gia_ObjFanin0(ptr noundef %81)
  %83 = call i32 @Gia_ObjIsAndNotBuf(ptr noundef %82)
  %84 = icmp ne i32 %83, 0
  br i1 %84, label %86, label %85

85:                                               ; preds = %80
  br label %104

86:                                               ; preds = %80
  %87 = load ptr, ptr %2, align 8, !tbaa !84
  %88 = load ptr, ptr %3, align 8, !tbaa !137
  %89 = call i32 @Gia_ObjFaninLit0p(ptr noundef %87, ptr noundef %88)
  store i32 %89, ptr %5, align 4, !tbaa !17
  %90 = load ptr, ptr %2, align 8, !tbaa !84
  %91 = load i32, ptr %5, align 4, !tbaa !17
  %92 = call i32 @Gia_ObjIsCell(ptr noundef %90, i32 noundef %91)
  %93 = icmp ne i32 %92, 0
  br i1 %93, label %98, label %94

94:                                               ; preds = %86
  %95 = load ptr, ptr %2, align 8, !tbaa !84
  %96 = load ptr, ptr %3, align 8, !tbaa !137
  %97 = call i32 @Gia_ObjFaninId0p(ptr noundef %95, ptr noundef %96)
  call void (i32, ptr, ...) @Abc_Print(i32 noundef -1, ptr noundef @.str.85, i32 noundef %97)
  store i32 0, ptr %6, align 4, !tbaa !17
  br label %104

98:                                               ; preds = %86
  %99 = load ptr, ptr %2, align 8, !tbaa !84
  %100 = load i32, ptr %5, align 4, !tbaa !17
  %101 = call i32 @Gia_ManCellMappingVerify_rec(ptr noundef %99, i32 noundef %100)
  %102 = load i32, ptr %6, align 4, !tbaa !17
  %103 = and i32 %102, %101
  store i32 %103, ptr %6, align 4, !tbaa !17
  br label %104

104:                                              ; preds = %98, %94, %85
  %105 = load i32, ptr %4, align 4, !tbaa !17
  %106 = add nsw i32 %105, 1
  store i32 %106, ptr %4, align 4, !tbaa !17
  br label %66, !llvm.loop !299

107:                                              ; preds = %78
  call void @llvm.lifetime.end.p0(i64 4, ptr %6) #13
  call void @llvm.lifetime.end.p0(i64 4, ptr %5) #13
  call void @llvm.lifetime.end.p0(i64 4, ptr %4) #13
  call void @llvm.lifetime.end.p0(i64 8, ptr %3) #13
  ret void
}