; Function Attrs: nounwind uwtable
define void @Gia_ManCellMappingVerify(ptr noundef %0) local_unnamed_addr #2 {
  tail call void @Gia_ManIncrementTravId(ptr noundef %0) #26
  tail call void @Gia_ManIncrementTravId(ptr noundef %0) #26
  %2 = getelementptr i8, ptr %0, i64 56
  %.val59 = load i32, ptr %2, align 8, !tbaa !293
  %.not = icmp eq i32 %.val59, 0
  br i1 %.not, label %.thread, label %4

.thread:                                          ; preds = %1
  %3 = getelementptr i8, ptr %0, i64 32
  br label %.critedge

4:                                                ; preds = %1
  %.phi.trans.insert = getelementptr inbounds nuw i8, ptr %0, i64 24
  %.pre = load i32, ptr %.phi.trans.insert, align 8, !tbaa !104
  %5 = getelementptr i8, ptr %0, i64 32
  %6 = getelementptr inbounds nuw i8, ptr %0, i64 24
  %7 = icmp sgt i32 %.pre, 0
  br i1 %7, label %.lr.ph, label %.critedge

.lr.ph:                                           ; preds = %4
  %8 = getelementptr i8, ptr %0, i64 288
  br label %9

9:                                                ; preds = %.lr.ph, %Gia_ObjIsAndNotBuf.exit.thread
  %indvars.iv = phi i64 [ 0, %.lr.ph ], [ %indvars.iv.next, %Gia_ObjIsAndNotBuf.exit.thread ]
  %.val47 = load ptr, ptr %5, align 8, !tbaa !134
  %10 = getelementptr inbounds nuw %struct.Gia_Obj_t_, ptr %.val47, i64 %indvars.iv
  %.not40 = icmp eq ptr %.val47, null
  br i1 %.not40, label %.critedge, label %11

11:                                               ; preds = %9
  %.val48 = load i64, ptr %10, align 4
  %12 = trunc i64 %.val48 to i32
  %13 = and i32 %12, 536870911
  %14 = lshr i64 %.val48, 32
  %15 = trunc nuw i64 %14 to i32
  %16 = and i32 %15, 536870911
  %17 = icmp ne i32 %13, %16
  %.not.i = icmp eq i32 %13, 536870911
  %or.cond.not.i.not68 = or i1 %.not.i, %17
  %18 = and i64 %.val48, 2147483648
  %.not4.i = icmp ne i64 %18, 0
  %narrow.i.not = or i1 %.not4.i, %or.cond.not.i.not68
  br i1 %narrow.i.not, label %Gia_ObjIsAndNotBuf.exit.thread, label %19

19:                                               ; preds = %11
  %20 = and i64 %.val48, 536870911
  %21 = sub nsw i64 0, %20
  %22 = getelementptr inbounds %struct.Gia_Obj_t_, ptr %10, i64 %21
  %.val56 = load i64, ptr %22, align 4
  %23 = and i64 %.val56, 2147483648
  %.not.i.i = icmp ne i64 %23, 0
  %24 = and i64 %.val56, 536870911
  %25 = icmp eq i64 %24, 536870911
  %narrow.i.not.i = or i1 %.not.i.i, %25
  br i1 %narrow.i.not.i, label %Gia_ObjIsAndNotBuf.exit.thread, label %Gia_ObjIsAndNotBuf.exit

Gia_ObjIsAndNotBuf.exit:                          ; preds = %19
  %26 = lshr i64 %.val56, 32
  %27 = xor i64 %26, %.val56
  %28 = and i64 %27, 536870911
  %.not69 = icmp eq i64 %28, 0
  br i1 %.not69, label %Gia_ObjIsAndNotBuf.exit.thread, label %29

29:                                               ; preds = %Gia_ObjIsAndNotBuf.exit
  %30 = trunc nsw i64 %indvars.iv to i32
  %31 = sub nsw i32 %30, %13
  %32 = lshr i32 %12, 29
  %33 = and i32 %32, 1
  %34 = shl nsw i32 %31, 1
  %35 = or disjoint i32 %34, %33
  %.val58 = load ptr, ptr %8, align 8, !tbaa !254
  %36 = getelementptr i8, ptr %.val58, i64 8
  %.val58.val = load ptr, ptr %36, align 8, !tbaa !25
  %37 = sext i32 %35 to i64
  %38 = getelementptr inbounds i32, ptr %.val58.val, i64 %37
  %39 = load i32, ptr %38, align 4, !tbaa !13
  %.not70 = icmp eq i32 %39, 0
  br i1 %.not70, label %40, label %41

40:                                               ; preds = %29
  tail call void (i32, ptr, ...) @Abc_Print(i32 noundef -1, ptr noundef nonnull @.str.84, i32 noundef %31)
  br label %Gia_ObjIsAndNotBuf.exit.thread

41:                                               ; preds = %29
  %42 = tail call i32 @Gia_ManCellMappingVerify_rec(ptr noundef nonnull %0, i32 noundef %35)
  br label %Gia_ObjIsAndNotBuf.exit.thread

Gia_ObjIsAndNotBuf.exit.thread:                   ; preds = %19, %41, %11, %Gia_ObjIsAndNotBuf.exit, %40
  %indvars.iv.next = add nuw nsw i64 %indvars.iv, 1
  %43 = load i32, ptr %6, align 8, !tbaa !104
  %44 = sext i32 %43 to i64
  %45 = icmp slt i64 %indvars.iv.next, %44
  br i1 %45, label %9, label %.critedge, !llvm.loop !294

.critedge:                                        ; preds = %9, %Gia_ObjIsAndNotBuf.exit.thread, %.thread, %4
  %46 = phi ptr [ %3, %.thread ], [ %5, %4 ], [ %5, %Gia_ObjIsAndNotBuf.exit.thread ], [ %5, %9 ]
  %47 = getelementptr inbounds nuw i8, ptr %0, i64 72
  %48 = load ptr, ptr %47, align 8, !tbaa !190
  %49 = getelementptr i8, ptr %48, i64 4
  %.val77 = load i32, ptr %49, align 4, !tbaa !22
  %50 = icmp sgt i32 %.val77, 0
  br i1 %50, label %.lr.ph80, label %.critedge2

.lr.ph80:                                         ; preds = %.critedge
  %51 = getelementptr i8, ptr %0, i64 288
  br label %52

52:                                               ; preds = %.lr.ph80, %Gia_ObjIsAndNotBuf.exit62.thread
  %indvars.iv83 = phi i64 [ 0, %.lr.ph80 ], [ %indvars.iv.next84, %Gia_ObjIsAndNotBuf.exit62.thread ]
  %53 = phi ptr [ %48, %.lr.ph80 ], [ %85, %Gia_ObjIsAndNotBuf.exit62.thread ]
  %.val49 = load ptr, ptr %46, align 8, !tbaa !134
  %54 = getelementptr i8, ptr %53, i64 8
  %.val50.val = load ptr, ptr %54, align 8, !tbaa !25
  %55 = getelementptr inbounds nuw i32, ptr %.val50.val, i64 %indvars.iv83
  %56 = load i32, ptr %55, align 4, !tbaa !13
  %.not41 = icmp eq ptr %.val49, null
  br i1 %.not41, label %.critedge2, label %57

57:                                               ; preds = %52
  %58 = sext i32 %56 to i64
  %59 = getelementptr inbounds %struct.Gia_Obj_t_, ptr %.val49, i64 %58
  %60 = load i64, ptr %59, align 4
  %61 = and i64 %60, 536870911
  %62 = sub nsw i64 0, %61
  %63 = getelementptr inbounds %struct.Gia_Obj_t_, ptr %59, i64 %62
  %.val55 = load i64, ptr %63, align 4
  %64 = and i64 %.val55, 2147483648
  %.not.i.i60 = icmp ne i64 %64, 0
  %65 = and i64 %.val55, 536870911
  %66 = icmp eq i64 %65, 536870911
  %narrow.i.not.i61 = or i1 %.not.i.i60, %66
  br i1 %narrow.i.not.i61, label %Gia_ObjIsAndNotBuf.exit62.thread, label %Gia_ObjIsAndNotBuf.exit62

Gia_ObjIsAndNotBuf.exit62:                        ; preds = %57
  %67 = lshr i64 %.val55, 32
  %68 = xor i64 %67, %.val55
  %69 = and i64 %68, 536870911
  %.not71 = icmp eq i64 %69, 0
  br i1 %.not71, label %Gia_ObjIsAndNotBuf.exit62.thread, label %70

70:                                               ; preds = %Gia_ObjIsAndNotBuf.exit62
  %71 = trunc i64 %60 to i32
  %72 = and i32 %71, 536870911
  %73 = sub nsw i32 %56, %72
  %74 = lshr i32 %71, 29
  %75 = and i32 %74, 1
  %76 = shl nsw i32 %73, 1
  %77 = or disjoint i32 %76, %75
  %.val57 = load ptr, ptr %51, align 8, !tbaa !254
  %78 = getelementptr i8, ptr %.val57, i64 8
  %.val57.val = load ptr, ptr %78, align 8, !tbaa !25
  %79 = sext i32 %77 to i64
  %80 = getelementptr inbounds i32, ptr %.val57.val, i64 %79
  %81 = load i32, ptr %80, align 4, !tbaa !13
  %.not72 = icmp eq i32 %81, 0
  br i1 %.not72, label %82, label %83

82:                                               ; preds = %70
  tail call void (i32, ptr, ...) @Abc_Print(i32 noundef -1, ptr noundef nonnull @.str.85, i32 noundef %73)
  br label %Gia_ObjIsAndNotBuf.exit62.thread

83:                                               ; preds = %70
  %84 = tail call i32 @Gia_ManCellMappingVerify_rec(ptr noundef nonnull %0, i32 noundef %77)
  br label %Gia_ObjIsAndNotBuf.exit62.thread

Gia_ObjIsAndNotBuf.exit62.thread:                 ; preds = %57, %Gia_ObjIsAndNotBuf.exit62, %83, %82
  %indvars.iv.next84 = add nuw nsw i64 %indvars.iv83, 1
  %85 = load ptr, ptr %47, align 8, !tbaa !190
  %86 = getelementptr i8, ptr %85, i64 4
  %.val = load i32, ptr %86, align 4, !tbaa !22
  %87 = sext i32 %.val to i64
  %88 = icmp slt i64 %indvars.iv.next84, %87
  br i1 %88, label %52, label %.critedge2, !llvm.loop !295

.critedge2:                                       ; preds = %52, %Gia_ObjIsAndNotBuf.exit62.thread, %.critedge
  ret void
}